target datalayout = "e-m:e-p270:32:32-p271:32:32-p272:64:64-i64:64-i128:128-f80:128-n8:16:32:64-S128"
target triple = "x86_64-pc-linux-gnu"

@.str = private unnamed_addr constant [26 x i8] c"Overflow. Broken sample?\0A\00", align 1

; Function Attrs: nounwind uwtable
define i32 @ff_eval_refl(ptr noundef %0, ptr noundef %1, ptr noundef %2) #0 {
  %4 = alloca i32, align 4
  %5 = alloca ptr, align 8
  %6 = alloca ptr, align 8
  %7 = alloca ptr, align 8
  %8 = alloca i32, align 4
  %9 = alloca i32, align 4
  %10 = alloca i32, align 4
  %11 = alloca [10 x i32], align 16
  %12 = alloca [10 x i32], align 16
  %13 = alloca ptr, align 8
  %14 = alloca ptr, align 8
  %15 = alloca i32, align 4
  %16 = alloca ptr, align 8
  store ptr %0, ptr %5, align 8, !tbaa !11
  store ptr %1, ptr %6, align 8, !tbaa !4
  store ptr %2, ptr %7, align 8, !tbaa !13
  call void @llvm.lifetime.start.p0(i64 4, ptr %8) #7
  call void @llvm.lifetime.start.p0(i64 4, ptr %9) #7
  call void @llvm.lifetime.start.p0(i64 4, ptr %10) #7
  call void @llvm.lifetime.start.p0(i64 40, ptr %11) #7
  call void @llvm.lifetime.start.p0(i64 40, ptr %12) #7
  call void @llvm.lifetime.start.p0(i64 8, ptr %13) #7
  %17 = getelementptr inbounds [10 x i32], ptr %11, i64 0, i64 0
  store ptr %17, ptr %13, align 8, !tbaa !11
  call void @llvm.lifetime.start.p0(i64 8, ptr %14) #7
  %18 = getelementptr inbounds [10 x i32], ptr %12, i64 0, i64 0
  store ptr %18, ptr %14, align 8, !tbaa !11
  store i32 0, ptr %9, align 4, !tbaa !9
  br label %19

19:                                               ; preds = %32, %3
  %20 = load i32, ptr %9, align 4, !tbaa !9
  %21 = icmp slt i32 %20, 10
  br i1 %21, label %22, label %35

22:                                               ; preds = %19
  %23 = load ptr, ptr %6, align 8, !tbaa !4
  %24 = load i32, ptr %9, align 4, !tbaa !9
  %25 = sext i32 %24 to i64
  %26 = getelementptr inbounds i16, ptr %23, i64 %25
  %27 = load i16, ptr %26, align 2, !tbaa !15
  %28 = sext i16 %27 to i32
  %29 = load i32, ptr %9, align 4, !tbaa !9
  %30 = sext i32 %29 to i64
  %31 = getelementptr inbounds [10 x i32], ptr %12, i64 0, i64 %30
  store i32 %28, ptr %31, align 4, !tbaa !9
  br label %32

32:                                               ; preds = %22
  %33 = load i32, ptr %9, align 4, !tbaa !9
  %34 = add nsw i32 %33, 1
  store i32 %34, ptr %9, align 4, !tbaa !9
  br label %19, !llvm.loop !17

35:                                               ; preds = %19
  %36 = load ptr, ptr %14, align 8, !tbaa !11
  %37 = getelementptr inbounds i32, ptr %36, i64 9
  %38 = load i32, ptr %37, align 4, !tbaa !9
  %39 = load ptr, ptr %5, align 8, !tbaa !11
  %40 = getelementptr inbounds i32, ptr %39, i64 9
  store i32 %38, ptr %40, align 4, !tbaa !9
  %41 = load ptr, ptr %14, align 8, !tbaa !11
  %42 = getelementptr inbounds i32, ptr %41, i64 9
  %43 = load i32, ptr %42, align 4, !tbaa !9
  %44 = add i32 %43, 4096
  %45 = icmp ugt i32 %44, 8191
  br i1 %45, label %46, label %48

46:                                               ; preds = %35
  %47 = load ptr, ptr %7, align 8, !tbaa !13
  call void (ptr, i32, ptr, ...) @av_log(ptr noundef %47, i32 noundef 16, ptr noundef @.str)
  store i32 1, ptr %4, align 4
  store i32 1, ptr %15, align 4
  br label %139

48:                                               ; preds = %35
  store i32 8, ptr %9, align 4, !tbaa !9
  br label %49

49:                                               ; preds = %135, %48
  %50 = load i32, ptr %9, align 4, !tbaa !9
  %51 = icmp sge i32 %50, 0
  br i1 %51, label %52, label %138

52:                                               ; preds = %49
  %53 = load ptr, ptr %14, align 8, !tbaa !11
  %54 = load i32, ptr %9, align 4, !tbaa !9
  %55 = add nsw i32 %54, 1
  %56 = sext i32 %55 to i64
  %57 = getelementptr inbounds i32, ptr %53, i64 %56
  %58 = load i32, ptr %57, align 4, !tbaa !9
  %59 = load ptr, ptr %14, align 8, !tbaa !11
  %60 = load i32, ptr %9, align 4, !tbaa !9
  %61 = add nsw i32 %60, 1
  %62 = sext i32 %61 to i64
  %63 = getelementptr inbounds i32, ptr %59, i64 %62
  %64 = load i32, ptr %63, align 4, !tbaa !9
  %65 = mul nsw i32 %58, %64
  %66 = ashr i32 %65, 12
  %67 = sub nsw i32 4096, %66
  store i32 %67, ptr %8, align 4, !tbaa !9
  %68 = load i32, ptr %8, align 4, !tbaa !9
  %69 = icmp ne i32 %68, 0
  br i1 %69, label %71, label %70

70:                                               ; preds = %52
  store i32 -2, ptr %8, align 4, !tbaa !9
  br label %71

71:                                               ; preds = %70, %52
  %72 = load i32, ptr %8, align 4, !tbaa !9
  %73 = sdiv i32 16777216, %72
  store i32 %73, ptr %8, align 4, !tbaa !9
  store i32 0, ptr %10, align 4, !tbaa !9
  br label %74

74:                                               ; preds = %107, %71
  %75 = load i32, ptr %10, align 4, !tbaa !9
  %76 = load i32, ptr %9, align 4, !tbaa !9
  %77 = icmp sle i32 %75, %76
  br i1 %77, label %78, label %110

78:                                               ; preds = %74
  %79 = load ptr, ptr %14, align 8, !tbaa !11
  %80 = load i32, ptr %10, align 4, !tbaa !9
  %81 = sext i32 %80 to i64
  %82 = getelementptr inbounds i32, ptr %79, i64 %81
  %83 = load i32, ptr %82, align 4, !tbaa !9
  %84 = load ptr, ptr %5, align 8, !tbaa !11
  %85 = load i32, ptr %9, align 4, !tbaa !9
  %86 = add nsw i32 %85, 1
  %87 = sext i32 %86 to i64
  %88 = getelementptr inbounds i32, ptr %84, i64 %87
  %89 = load i32, ptr %88, align 4, !tbaa !9
  %90 = load ptr, ptr %14, align 8, !tbaa !11
  %91 = load i32, ptr %9, align 4, !tbaa !9
  %92 = load i32, ptr %10, align 4, !tbaa !9
  %93 = sub nsw i32 %91, %92
  %94 = sext i32 %93 to i64
  %95 = getelementptr inbounds i32, ptr %90, i64 %94
  %96 = load i32, ptr %95, align 4, !tbaa !9
  %97 = mul i32 %89, %96
  %98 = ashr i32 %97, 12
  %99 = sub nsw i32 %83, %98
  %100 = load i32, ptr %8, align 4, !tbaa !9
  %101 = mul i32 %99, %100
  %102 = ashr i32 %101, 12
  %103 = load ptr, ptr %13, align 8, !tbaa !11
  %104 = load i32, ptr %10, align 4, !tbaa !9
  %105 = sext i32 %104 to i64
  %106 = getelementptr inbounds i32, ptr %103, i64 %105
  store i32 %102, ptr %106, align 4, !tbaa !9
  br label %107

107:                                              ; preds = %78
  %108 = load i32, ptr %10, align 4, !tbaa !9
  %109 = add nsw i32 %108, 1
  store i32 %109, ptr %10, align 4, !tbaa !9
  br label %74, !llvm.loop !19

110:                                              ; preds = %74
  %111 = load ptr, ptr %13, align 8, !tbaa !11
  %112 = load i32, ptr %9, align 4, !tbaa !9
  %113 = sext i32 %112 to i64
  %114 = getelementptr inbounds i32, ptr %111, i64 %113
  %115 = load i32, ptr %114, align 4, !tbaa !9
  %116 = add i32 %115, 4096
  %117 = icmp ugt i32 %116, 8191
  br i1 %117, label %118, label %119

118:                                              ; preds = %110
  store i32 1, ptr %4, align 4
  store i32 1, ptr %15, align 4
  br label %139

119:                                              ; preds = %110
  %120 = load ptr, ptr %13, align 8, !tbaa !11
  %121 = load i32, ptr %9, align 4, !tbaa !9
  %122 = sext i32 %121 to i64
  %123 = getelementptr inbounds i32, ptr %120, i64 %122
  %124 = load i32, ptr %123, align 4, !tbaa !9
  %125 = load ptr, ptr %5, align 8, !tbaa !11
  %126 = load i32, ptr %9, align 4, !tbaa !9
  %127 = sext i32 %126 to i64
  %128 = getelementptr inbounds i32, ptr %125, i64 %127
  store i32 %124, ptr %128, align 4, !tbaa !9
  br label %129

129:                                              ; preds = %119
  call void @llvm.lifetime.start.p0(i64 8, ptr %16) #7
  %130 = load ptr, ptr %14, align 8, !tbaa !11
  store ptr %130, ptr %16, align 8, !tbaa !11
  %131 = load ptr, ptr %13, align 8, !tbaa !11
  store ptr %131, ptr %14, align 8, !tbaa !11
  %132 = load ptr, ptr %16, align 8, !tbaa !11
  store ptr %132, ptr %13, align 8, !tbaa !11
  call void @llvm.lifetime.end.p0(i64 8, ptr %16) #7
  br label %133

133:                                              ; preds = %129
  br label %134

134:                                              ; preds = %133
  br label %135

135:                                              ; preds = %134
  %136 = load i32, ptr %9, align 4, !tbaa !9
  %137 = add nsw i32 %136, -1
  store i32 %137, ptr %9, align 4, !tbaa !9
  br label %49, !llvm.loop !20

138:                                              ; preds = %49
  store i32 0, ptr %4, align 4
  store i32 1, ptr %15, align 4
  br label %139

139:                                              ; preds = %138, %118, %46
  call void @llvm.lifetime.end.p0(i64 8, ptr %14) #7
  call void @llvm.lifetime.end.p0(i64 8, ptr %13) #7
  call void @llvm.lifetime.end.p0(i64 40, ptr %12) #7
  call void @llvm.lifetime.end.p0(i64 40, ptr %11) #7
  call void @llvm.lifetime.end.p0(i64 4, ptr %10) #7
  call void @llvm.lifetime.end.p0(i64 4, ptr %9) #7
  call void @llvm.lifetime.end.p0(i64 4, ptr %8) #7
  %140 = load i32, ptr %4, align 4
  ret i32 %140
}