; Function Attrs: nounwind uwtable
define range(i32 0, 2) i32 @ff_eval_refl(ptr noundef captures(none) %0, ptr noundef readonly captures(none) %1, ptr noundef %2) local_unnamed_addr #2 {
  %4 = alloca [10 x i32], align 16
  %5 = alloca [10 x i32], align 16
  call void @llvm.lifetime.start.p0(i64 40, ptr nonnull %4) #12
  call void @llvm.lifetime.start.p0(i64 40, ptr nonnull %5) #12
  br label %6

6:                                                ; preds = %3, %6
  %indvars.iv = phi i64 [ 0, %3 ], [ %indvars.iv.next, %6 ]
  %7 = getelementptr inbounds nuw i16, ptr %1, i64 %indvars.iv
  %8 = load i16, ptr %7, align 2, !tbaa !4
  %9 = sext i16 %8 to i32
  %10 = getelementptr inbounds nuw [10 x i32], ptr %5, i64 0, i64 %indvars.iv
  store i32 %9, ptr %10, align 4, !tbaa !8
  %indvars.iv.next = add nuw nsw i64 %indvars.iv, 1
  %exitcond.not = icmp eq i64 %indvars.iv.next, 10
  br i1 %exitcond.not, label %11, label %6, !llvm.loop !10

11:                                               ; preds = %6
  %12 = getelementptr inbounds nuw i8, ptr %5, i64 36
  %13 = load i32, ptr %12, align 4, !tbaa !8
  %14 = getelementptr inbounds nuw i8, ptr %0, i64 36
  store i32 %13, ptr %14, align 4, !tbaa !8
  %15 = add i32 %13, -4096
  %16 = icmp ult i32 %15, -8192
  br i1 %16, label %17, label %.preheader

17:                                               ; preds = %11
  tail call void (ptr, i32, ptr, ...) @av_log(ptr noundef %2, i32 noundef 16, ptr noundef nonnull @.str) #12
  br label %.loopexit

.preheader:                                       ; preds = %11, %44
  %indvars.iv58 = phi i64 [ %indvars.iv.next59, %44 ], [ 8, %11 ]
  %indvars.iv56 = phi i64 [ %indvars.iv.next57, %44 ], [ 9, %11 ]
  %.03948 = phi ptr [ %.04047, %44 ], [ %5, %11 ]
  %.04047 = phi ptr [ %.03948, %44 ], [ %4, %11 ]
  %18 = add nuw nsw i64 %indvars.iv58, 1
  %19 = getelementptr inbounds nuw i32, ptr %.03948, i64 %18
  %20 = load i32, ptr %19, align 4, !tbaa !8
  %21 = mul nsw i32 %20, %20
  %22 = lshr i32 %21, 12
  %23 = sub nsw i32 4096, %22
  %.not = icmp eq i32 %22, 4096
  %spec.store.select = select i1 %.not, i32 -2, i32 %23
  %24 = sdiv i32 16777216, %spec.store.select
  %25 = getelementptr inbounds nuw i32, ptr %0, i64 %18
  br label %26

26:                                               ; preds = %.preheader, %26
  %indvars.iv50 = phi i64 [ 0, %.preheader ], [ %indvars.iv.next51, %26 ]
  %27 = getelementptr inbounds nuw i32, ptr %.03948, i64 %indvars.iv50
  %28 = load i32, ptr %27, align 4, !tbaa !8
  %29 = load i32, ptr %25, align 4, !tbaa !8
  %30 = sub nsw i64 %indvars.iv58, %indvars.iv50
  %31 = getelementptr inbounds i32, ptr %.03948, i64 %30
  %32 = load i32, ptr %31, align 4, !tbaa !8
  %33 = mul i32 %32, %29
  %34 = ashr i32 %33, 12
  %35 = sub nsw i32 %28, %34
  %36 = mul i32 %35, %24
  %37 = ashr i32 %36, 12
  %38 = getelementptr inbounds nuw i32, ptr %.04047, i64 %indvars.iv50
  store i32 %37, ptr %38, align 4, !tbaa !8
  %indvars.iv.next51 = add nuw nsw i64 %indvars.iv50, 1
  %exitcond55.not = icmp eq i64 %indvars.iv.next51, %indvars.iv56
  br i1 %exitcond55.not, label %39, label %26, !llvm.loop !12

39:                                               ; preds = %26
  %40 = getelementptr inbounds nuw i32, ptr %.04047, i64 %indvars.iv58
  %41 = load i32, ptr %40, align 4, !tbaa !8
  %42 = add i32 %41, -4096
  %43 = icmp ult i32 %42, -8192
  br i1 %43, label %.loopexit, label %44

44:                                               ; preds = %39
  %45 = getelementptr inbounds nuw i32, ptr %0, i64 %indvars.iv58
  store i32 %41, ptr %45, align 4, !tbaa !8
  %indvars.iv.next59 = add nsw i64 %indvars.iv58, -1
  %.not63 = icmp eq i64 %indvars.iv58, 0
  %indvars.iv.next57 = add nsw i64 %indvars.iv56, -1
  br i1 %.not63, label %.loopexit, label %.preheader, !llvm.loop !13

.loopexit:                                        ; preds = %44, %39, %17
  %.0 = phi i32 [ 1, %17 ], [ 0, %44 ], [ 1, %39 ]
  call void @llvm.lifetime.end.p0(i64 40, ptr nonnull %5) #12
  call void @llvm.lifetime.end.p0(i64 40, ptr nonnull %4) #12
  ret i32 %.0
}